; Function Attrs: nounwind uwtable
define internal i32 @archive_filter_uuencode_close(ptr noundef readonly captures(none) %0) #0 {
  %2 = getelementptr inbounds nuw i8, ptr %0, i64 72
  %3 = load ptr, ptr %2, align 8, !tbaa !17
  %4 = getelementptr inbounds nuw i8, ptr %3, i64 64
  %5 = load i64, ptr %4, align 8, !tbaa !35
  %.not = icmp eq i64 %5, 0
  br i1 %.not, label %9, label %6

6:                                                ; preds = %1
  %7 = getelementptr inbounds nuw i8, ptr %3, i64 32
  %8 = getelementptr inbounds nuw i8, ptr %3, i64 72
  tail call fastcc void @uu_encode(ptr noundef nonnull %7, ptr noundef nonnull %8, i64 noundef %5)
  br label %9

9:                                                ; preds = %6, %1
  %10 = getelementptr inbounds nuw i8, ptr %3, i64 32
  tail call void (ptr, ptr, ...) @archive_string_sprintf(ptr noundef nonnull %10, ptr noundef nonnull @.str.10) #6
  %11 = getelementptr inbounds nuw i8, ptr %0, i64 8
  %12 = load ptr, ptr %11, align 8, !tbaa !4
  %13 = tail call i32 @archive_write_set_bytes_in_last_block(ptr noundef %12, i32 noundef 1) #6
  %14 = getelementptr inbounds nuw i8, ptr %0, i64 16
  %15 = load ptr, ptr %14, align 8, !tbaa !39
  %16 = load ptr, ptr %10, align 8, !tbaa !40
  %17 = getelementptr inbounds nuw i8, ptr %3, i64 40
  %18 = load i64, ptr %17, align 8, !tbaa !38
  %19 = tail call i32 @__archive_write_filter(ptr noundef %15, ptr noundef %16, i64 noundef %18) #6
  ret i32 %19
}